(lp0
(ibuild_medals_table.spiders.country_medals_c
country_medals
p1
(dp2
S'golds'
p3
I7
sS'bronzes'
p4
I6
sS'name'
p5
VUSSR
p6
sS'rank'
p7
I1
sS'silvers'
p8
I3
sba(ibuild_medals_table.spiders.country_medals_c
country_medals
p9
(dp10
g3
I4
sg4
I4
sg5
VAustria
p11
sg7
I2
sg8
I3
sba(ibuild_medals_table.spiders.country_medals_c
country_medals
p12
(dp13
g3
I3
sg4
I1
sg5
VFinland
p14
sg7
I3
sg8
I3
sba(ibuild_medals_table.spiders.country_medals_c
country_medals
p15
(dp16
g3
I3
sg4
I1
sg5
VSwitzerland
p17
sg7
I4
sg8
I2
sba(ibuild_medals_table.spiders.country_medals_c
country_medals
p18
(dp19
g3
I2
sg4
I4
sg5
VSweden
p20
sg7
I5
sg8
I4
sba(ibuild_medals_table.spiders.country_medals_c
country_medals
p21
(dp22
g3
I2
sg4
I2
sg5
VUnited States of America
p23
sg7
I6
sg8
I3
sba(ibuild_medals_table.spiders.country_medals_c
country_medals
p24
(dp25
g3
I2
sg4
I1
sg5
VNorway
p26
sg7
I7
sg8
I1
sba(ibuild_medals_table.spiders.country_medals_c
country_medals
p27
(dp28
g3
I1
sg4
I0
sg5
VItaly
p29
sg7
I8
sg8
I2
sba(ibuild_medals_table.spiders.country_medals_c
country_medals
p30
(dp31
g3
I1
sg4
I1
sg5
VUnited Team of Germany
p32
sg7
I9
sg8
I0
sba(ibuild_medals_table.spiders.country_medals_c
country_medals
p33
(dp34
g3
I0
sg4
I2
sg5
VCanada
p35
sg7
I10
sg8
I1
sba(ibuild_medals_table.spiders.country_medals_c
country_medals
p36
(dp37
g3
I0
sg4
I0
sg5
VJapan
p38
sg7
I11
sg8
I1
sba(ibuild_medals_table.spiders.country_medals_c
country_medals
p39
(dp40
g3
I0
sg4
I1
sg5
VPoland
p41
sg7
I12
sg8
I0
sba(ibuild_medals_table.spiders.country_medals_c
country_medals
p42
(dp43
g3
I0
sg4
I1
sg5
VHungary
p44
sg7
I12
sg8
I0
sba.