(lp0
(ibuild_medals_table.spiders.country_medals_c
country_medals
p1
(dp2
S'golds'
p3
I13
sS'bronzes'
p4
I7
sS'name'
p5
VNorway
p6
sS'rank'
p7
I1
sS'silvers'
p8
I5
sba(ibuild_medals_table.spiders.country_medals_c
country_medals
p9
(dp10
g3
I12
sg4
I8
sg5
VGermany
p11
sg7
I2
sg8
I16
sba(ibuild_medals_table.spiders.country_medals_c
country_medals
p12
(dp13
g3
I10
sg4
I11
sg5
VUnited States of America
p14
sg7
I3
sg8
I13
sba(ibuild_medals_table.spiders.country_medals_c
country_medals
p15
(dp16
g3
I7
sg4
I7
sg5
VCanada
p17
sg7
I4
sg8
I3
sba(ibuild_medals_table.spiders.country_medals_c
country_medals
p18
(dp19
g3
I5
sg4
I4
sg5
VRussia
p20
sg7
I5
sg8
I4
sba(ibuild_medals_table.spiders.country_medals_c
country_medals
p21
(dp22
g3
I4
sg4
I2
sg5
VFrance
p23
sg7
I6
sg8
I5
sba(ibuild_medals_table.spiders.country_medals_c
country_medals
p24
(dp25
g3
I4
sg4
I5
sg5
VItaly
p26
sg7
I7
sg8
I4
sba(ibuild_medals_table.spiders.country_medals_c
country_medals
p27
(dp28
g3
I4
sg4
I1
sg5
VFinland
p29
sg7
I8
sg8
I2
sba(ibuild_medals_table.spiders.country_medals_c
country_medals
p30
(dp31
g3
I3
sg4
I0
sg5
VThe Netherlands
p32
sg7
I9
sg8
I5
sba(ibuild_medals_table.spiders.country_medals_c
country_medals
p33
(dp34
g3
I3
sg4
I10
sg5
VAustria
p35
sg7
I10
sg8
I4
sba(ibuild_medals_table.spiders.country_medals_c
country_medals
p36
(dp37
g3
I3
sg4
I6
sg5
VSwitzerland
p38
sg7
I11
sg8
I2
sba(ibuild_medals_table.spiders.country_medals_c
country_medals
p39
(dp40
g3
I3
sg4
I0
sg5
VCroatia
p41
sg7
I12
sg8
I1
sba(ibuild_medals_table.spiders.country_medals_c
country_medals
p42
(dp43
g3
I2
sg4
I4
sg5
VChina
p44
sg7
I13
sg8
I2
sba(ibuild_medals_table.spiders.country_medals_c
country_medals
p45
(dp46
g3
I2
sg4
I0
sg5
VSouth Korea
p47
sg7
I14
sg8
I2
sba(ibuild_medals_table.spiders.country_medals_c
country_medals
p48
(dp49
g3
I2
sg4
I0
sg5
VAustralia
p50
sg7
I15
sg8
I0
sba(ibuild_medals_table.spiders.country_medals_c
country_medals
p51
(dp52
g3
I1
sg4
I0
sg5
VCzech Republic
p53
sg7
I16
sg8
I2
sba(ibuild_medals_table.spiders.country_medals_c
country_medals
p54
(dp55
g3
I1
sg4
I1
sg5
VEstonia
p56
sg7
I17
sg8
I1
sba(ibuild_medals_table.spiders.country_medals_c
country_medals
p57
(dp58
g3
I1
sg4
I1
sg5
VGreat Britain
p59
sg7
I18
sg8
I0
sba(ibuild_medals_table.spiders.country_medals_c
country_medals
p60
(dp61
g3
I0
sg4
I5
sg5
VSweden
p62
sg7
I19
sg8
I2
sba(ibuild_medals_table.spiders.country_medals_c
country_medals
p63
(dp64
g3
I0
sg4
I2
sg5
VBulgaria
p65
sg7
I20
sg8
I1
sba(ibuild_medals_table.spiders.country_medals_c
country_medals
p66
(dp67
g3
I0
sg4
I1
sg5
VJapan
p68
sg7
I21
sg8
I1
sba(ibuild_medals_table.spiders.country_medals_c
country_medals
p69
(dp70
g3
I0
sg4
I1
sg5
VPoland
p71
sg7
I21
sg8
I1
sba(ibuild_medals_table.spiders.country_medals_c
country_medals
p72
(dp73
g3
I0
sg4
I1
sg5
VBelarus
p74
sg7
I24
sg8
I0
sba(ibuild_medals_table.spiders.country_medals_c
country_medals
p75
(dp76
g3
I0
sg4
I1
sg5
VSlovenia
p77
sg7
I24
sg8
I0
sba.